target datalayout = "e-m:e-p270:32:32-p271:32:32-p272:64:64-i64:64-i128:128-f80:128-n8:16:32:64-S128"
target triple = "x86_64-pc-linux-gnu"

%struct.FunctionCallInfoBaseData = type { ptr, ptr, ptr, i32, i8, i16, [0 x %struct.NullableDatum] }
%struct.NullableDatum = type { i64, i8 }
%struct.FmgrInfo = type { ptr, i32, i16, i8, i8, i8, ptr, ptr, ptr }
%struct.anon = type { i32, [0 x i8] }
%struct.ArrayBuildState = type { ptr, ptr, ptr, i32, i32, i32, i16, i8, i8, i8 }
%struct.StringInfoData = type { ptr, i32, i32, i32 }
%struct.SerialIOData = type { %struct.FmgrInfo }

; Function Attrs: inlinehint nounwind uwtable
define internal void @pq_writeint8(ptr noalias noundef %0, i8 noundef zeroext %1) #2 {
  %3 = alloca ptr, align 8
  %4 = alloca i8, align 1
  %5 = alloca i8, align 1
  store ptr %0, ptr %3, align 8
  store i8 %1, ptr %4, align 1
  call void @llvm.lifetime.start.p0(i64 1, ptr %5) #7
  %6 = load i8, ptr %4, align 1
  store i8 %6, ptr %5, align 1
  %7 = load ptr, ptr %3, align 8
  %8 = getelementptr inbounds nuw %struct.StringInfoData, ptr %7, i32 0, i32 0
  %9 = load ptr, ptr %8, align 8
  %10 = load ptr, ptr %3, align 8
  %11 = getelementptr inbounds nuw %struct.StringInfoData, ptr %10, i32 0, i32 1
  %12 = load i32, ptr %11, align 8
  %13 = sext i32 %12 to i64
  %14 = getelementptr inbounds i8, ptr %9, i64 %13
  call void @llvm.memcpy.p0.p0.i64(ptr align 1 %14, ptr align 1 %5, i64 1, i1 false)
  %15 = load ptr, ptr %3, align 8
  %16 = getelementptr inbounds nuw %struct.StringInfoData, ptr %15, i32 0, i32 1
  %17 = load i32, ptr %16, align 8
  %18 = sext i32 %17 to i64
  %19 = add i64 %18, 1
  %20 = trunc i64 %19 to i32
  store i32 %20, ptr %16, align 8
  call void @llvm.lifetime.end.p0(i64 1, ptr %5) #7
  ret void
}

; Function Attrs: inlinehint nounwind uwtable
define internal void @pq_sendint8(ptr noundef %0, i8 noundef zeroext %1) #2 {
  %3 = alloca ptr, align 8
  %4 = alloca i8, align 1
  store ptr %0, ptr %3, align 8
  store i8 %1, ptr %4, align 1
  %5 = load ptr, ptr %3, align 8
  call void @enlargeStringInfo(ptr noundef %5, i32 noundef 1)
  %6 = load ptr, ptr %3, align 8
  %7 = load i8, ptr %4, align 1
  call void @pq_writeint8(ptr noundef %6, i8 noundef zeroext %7)
  ret void
}

; Function Attrs: inlinehint nounwind uwtable
define internal void @pq_writeint16(ptr noalias noundef %0, i16 noundef zeroext %1) #2 {
  %3 = alloca ptr, align 8
  %4 = alloca i16, align 2
  %5 = alloca i16, align 2
  store ptr %0, ptr %3, align 8
  store i16 %1, ptr %4, align 2
  call void @llvm.lifetime.start.p0(i64 2, ptr %5) #7
  %6 = load i16, ptr %4, align 2
  %7 = call i16 @llvm.bswap.i16(i16 %6)
  store i16 %7, ptr %5, align 2
  %8 = load ptr, ptr %3, align 8
  %9 = getelementptr inbounds nuw %struct.StringInfoData, ptr %8, i32 0, i32 0
  %10 = load ptr, ptr %9, align 8
  %11 = load ptr, ptr %3, align 8
  %12 = getelementptr inbounds nuw %struct.StringInfoData, ptr %11, i32 0, i32 1
  %13 = load i32, ptr %12, align 8
  %14 = sext i32 %13 to i64
  %15 = getelementptr inbounds i8, ptr %10, i64 %14
  call void @llvm.memcpy.p0.p0.i64(ptr align 1 %15, ptr align 2 %5, i64 2, i1 false)
  %16 = load ptr, ptr %3, align 8
  %17 = getelementptr inbounds nuw %struct.StringInfoData, ptr %16, i32 0, i32 1
  %18 = load i32, ptr %17, align 8
  %19 = sext i32 %18 to i64
  %20 = add i64 %19, 2
  %21 = trunc i64 %20 to i32
  store i32 %21, ptr %17, align 8
  call void @llvm.lifetime.end.p0(i64 2, ptr %5) #7
  ret void
}

; Function Attrs: inlinehint nounwind uwtable
define internal void @pq_writeint64(ptr noalias noundef %0, i64 noundef %1) #2 {
  %3 = alloca ptr, align 8
  %4 = alloca i64, align 8
  %5 = alloca i64, align 8
  store ptr %0, ptr %3, align 8
  store i64 %1, ptr %4, align 8
  call void @llvm.lifetime.start.p0(i64 8, ptr %5) #7
  %6 = load i64, ptr %4, align 8
  %7 = call i64 @llvm.bswap.i64(i64 %6)
  store i64 %7, ptr %5, align 8
  %8 = load ptr, ptr %3, align 8
  %9 = getelementptr inbounds nuw %struct.StringInfoData, ptr %8, i32 0, i32 0
  %10 = load ptr, ptr %9, align 8
  %11 = load ptr, ptr %3, align 8
  %12 = getelementptr inbounds nuw %struct.StringInfoData, ptr %11, i32 0, i32 1
  %13 = load i32, ptr %12, align 8
  %14 = sext i32 %13 to i64
  %15 = getelementptr inbounds i8, ptr %10, i64 %14
  call void @llvm.memcpy.p0.p0.i64(ptr align 1 %15, ptr align 8 %5, i64 8, i1 false)
  %16 = load ptr, ptr %3, align 8
  %17 = getelementptr inbounds nuw %struct.StringInfoData, ptr %16, i32 0, i32 1
  %18 = load i32, ptr %17, align 8
  %19 = sext i32 %18 to i64
  %20 = add i64 %19, 8
  %21 = trunc i64 %20 to i32
  store i32 %21, ptr %17, align 8
  call void @llvm.lifetime.end.p0(i64 8, ptr %5) #7
  ret void
}

; Function Attrs: inlinehint nounwind uwtable
define internal void @pq_writeint32(ptr noalias noundef %0, i32 noundef %1) #2 {
  %3 = alloca ptr, align 8
  %4 = alloca i32, align 4
  %5 = alloca i32, align 4
  store ptr %0, ptr %3, align 8
  store i32 %1, ptr %4, align 4
  call void @llvm.lifetime.start.p0(i64 4, ptr %5) #7
  %6 = load i32, ptr %4, align 4
  %7 = call i32 @llvm.bswap.i32(i32 %6)
  store i32 %7, ptr %5, align 4
  %8 = load ptr, ptr %3, align 8
  %9 = getelementptr inbounds nuw %struct.StringInfoData, ptr %8, i32 0, i32 0
  %10 = load ptr, ptr %9, align 8
  %11 = load ptr, ptr %3, align 8
  %12 = getelementptr inbounds nuw %struct.StringInfoData, ptr %11, i32 0, i32 1
  %13 = load i32, ptr %12, align 8
  %14 = sext i32 %13 to i64
  %15 = getelementptr inbounds i8, ptr %10, i64 %14
  call void @llvm.memcpy.p0.p0.i64(ptr align 1 %15, ptr align 4 %5, i64 4, i1 false)
  %16 = load ptr, ptr %3, align 8
  %17 = getelementptr inbounds nuw %struct.StringInfoData, ptr %16, i32 0, i32 1
  %18 = load i32, ptr %17, align 8
  %19 = sext i32 %18 to i64
  %20 = add i64 %19, 4
  %21 = trunc i64 %20 to i32
  store i32 %21, ptr %17, align 8
  call void @llvm.lifetime.end.p0(i64 4, ptr %5) #7
  ret void
}

; Function Attrs: inlinehint nounwind uwtable
define internal i64 @PointerGetDatum(ptr noundef %0) #2 {
  %2 = alloca ptr, align 8
  store ptr %0, ptr %2, align 8
  %3 = load ptr, ptr %2, align 8
  %4 = ptrtoint ptr %3 to i64
  ret i64 %4
}

; Function Attrs: inlinehint nounwind uwtable
define internal void @pq_sendbyte(ptr noundef %0, i8 noundef zeroext %1) #2 {
  %3 = alloca ptr, align 8
  %4 = alloca i8, align 1
  store ptr %0, ptr %3, align 8
  store i8 %1, ptr %4, align 1
  %5 = load ptr, ptr %3, align 8
  %6 = load i8, ptr %4, align 1
  call void @pq_sendint8(ptr noundef %5, i8 noundef zeroext %6)
  ret void
}

; Function Attrs: inlinehint nounwind uwtable
define internal void @pq_sendint16(ptr noundef %0, i16 noundef zeroext %1) #2 {
  %3 = alloca ptr, align 8
  %4 = alloca i16, align 2
  store ptr %0, ptr %3, align 8
  store i16 %1, ptr %4, align 2
  %5 = load ptr, ptr %3, align 8
  call void @enlargeStringInfo(ptr noundef %5, i32 noundef 2)
  %6 = load ptr, ptr %3, align 8
  %7 = load i16, ptr %4, align 2
  call void @pq_writeint16(ptr noundef %6, i16 noundef zeroext %7)
  ret void
}

; Function Attrs: inlinehint nounwind uwtable
define internal void @pq_sendint64(ptr noundef %0, i64 noundef %1) #2 {
  %3 = alloca ptr, align 8
  %4 = alloca i64, align 8
  store ptr %0, ptr %3, align 8
  store i64 %1, ptr %4, align 8
  %5 = load ptr, ptr %3, align 8
  call void @enlargeStringInfo(ptr noundef %5, i32 noundef 8)
  %6 = load ptr, ptr %3, align 8
  %7 = load i64, ptr %4, align 8
  call void @pq_writeint64(ptr noundef %6, i64 noundef %7)
  ret void
}

; Function Attrs: inlinehint nounwind uwtable
define internal void @pq_sendint32(ptr noundef %0, i32 noundef %1) #2 {
  %3 = alloca ptr, align 8
  %4 = alloca i32, align 4
  store ptr %0, ptr %3, align 8
  store i32 %1, ptr %4, align 4
  %5 = load ptr, ptr %3, align 8
  call void @enlargeStringInfo(ptr noundef %5, i32 noundef 4)
  %6 = load ptr, ptr %3, align 8
  %7 = load i32, ptr %4, align 4
  call void @pq_writeint32(ptr noundef %6, i32 noundef %7)
  ret void
}

; Function Attrs: inlinehint nounwind uwtable
define internal ptr @DatumGetPointer(i64 noundef %0) #2 {
  %2 = alloca i64, align 8
  store i64 %0, ptr %2, align 8
  %3 = load i64, ptr %2, align 8
  %4 = inttoptr i64 %3 to ptr
  ret ptr %4
}

; Function Attrs: nounwind uwtable
define dso_local i64 @array_agg_serialize(ptr noundef %0) #0 {
  %2 = alloca ptr, align 8
  %3 = alloca ptr, align 8
  %4 = alloca %struct.StringInfoData, align 8
  %5 = alloca ptr, align 8
  %6 = alloca ptr, align 8
  %7 = alloca i32, align 4
  %8 = alloca i32, align 4
  %9 = alloca i8, align 1
  %10 = alloca ptr, align 8
  %11 = alloca i32, align 4
  store ptr %0, ptr %2, align 8
  call void @llvm.lifetime.start.p0(i64 8, ptr %3) #7
  call void @llvm.lifetime.start.p0(i64 24, ptr %4) #7
  call void @llvm.lifetime.start.p0(i64 8, ptr %5) #7
  %12 = load ptr, ptr %2, align 8
  %13 = getelementptr inbounds nuw %struct.FunctionCallInfoBaseData, ptr %12, i32 0, i32 6
  %14 = getelementptr inbounds [0 x %struct.NullableDatum], ptr %13, i64 0, i64 0
  %15 = getelementptr inbounds nuw %struct.NullableDatum, ptr %14, i32 0, i32 0
  %16 = load i64, ptr %15, align 8
  %17 = call ptr @DatumGetPointer(i64 noundef %16)
  store ptr %17, ptr %3, align 8
  call void @pq_begintypsend(ptr noundef %4)
  %18 = load ptr, ptr %3, align 8
  %19 = getelementptr inbounds nuw %struct.ArrayBuildState, ptr %18, i32 0, i32 5
  %20 = load i32, ptr %19, align 8
  call void @pq_sendint32(ptr noundef %4, i32 noundef %20)
  %21 = load ptr, ptr %3, align 8
  %22 = getelementptr inbounds nuw %struct.ArrayBuildState, ptr %21, i32 0, i32 4
  %23 = load i32, ptr %22, align 4
  %24 = sext i32 %23 to i64
  call void @pq_sendint64(ptr noundef %4, i64 noundef %24)
  %25 = load ptr, ptr %3, align 8
  %26 = getelementptr inbounds nuw %struct.ArrayBuildState, ptr %25, i32 0, i32 6
  %27 = load i16, ptr %26, align 4
  call void @pq_sendint16(ptr noundef %4, i16 noundef zeroext %27)
  %28 = load ptr, ptr %3, align 8
  %29 = getelementptr inbounds nuw %struct.ArrayBuildState, ptr %28, i32 0, i32 7
  %30 = load i8, ptr %29, align 2, !range !4, !noundef !5
  %31 = trunc i8 %30 to i1
  %32 = zext i1 %31 to i8
  call void @pq_sendbyte(ptr noundef %4, i8 noundef zeroext %32)
  %33 = load ptr, ptr %3, align 8
  %34 = getelementptr inbounds nuw %struct.ArrayBuildState, ptr %33, i32 0, i32 8
  %35 = load i8, ptr %34, align 1
  call void @pq_sendbyte(ptr noundef %4, i8 noundef zeroext %35)
  %36 = load ptr, ptr %3, align 8
  %37 = getelementptr inbounds nuw %struct.ArrayBuildState, ptr %36, i32 0, i32 2
  %38 = load ptr, ptr %37, align 8
  %39 = load ptr, ptr %3, align 8
  %40 = getelementptr inbounds nuw %struct.ArrayBuildState, ptr %39, i32 0, i32 4
  %41 = load i32, ptr %40, align 4
  %42 = sext i32 %41 to i64
  %43 = mul i64 1, %42
  %44 = trunc i64 %43 to i32
  call void @pq_sendbytes(ptr noundef %4, ptr noundef %38, i32 noundef %44)
  %45 = load ptr, ptr %3, align 8
  %46 = getelementptr inbounds nuw %struct.ArrayBuildState, ptr %45, i32 0, i32 7
  %47 = load i8, ptr %46, align 2, !range !4, !noundef !5
  %48 = trunc i8 %47 to i1
  br i1 %48, label %49, label %59

49:                                               ; preds = %1
  %50 = load ptr, ptr %3, align 8
  %51 = getelementptr inbounds nuw %struct.ArrayBuildState, ptr %50, i32 0, i32 1
  %52 = load ptr, ptr %51, align 8
  %53 = load ptr, ptr %3, align 8
  %54 = getelementptr inbounds nuw %struct.ArrayBuildState, ptr %53, i32 0, i32 4
  %55 = load i32, ptr %54, align 4
  %56 = sext i32 %55 to i64
  %57 = mul i64 8, %56
  %58 = trunc i64 %57 to i32
  call void @pq_sendbytes(ptr noundef %4, ptr noundef %52, i32 noundef %58)
  br label %140

59:                                               ; preds = %1
  call void @llvm.lifetime.start.p0(i64 8, ptr %6) #7
  call void @llvm.lifetime.start.p0(i64 4, ptr %7) #7
  %60 = load ptr, ptr %2, align 8
  %61 = getelementptr inbounds nuw %struct.FunctionCallInfoBaseData, ptr %60, i32 0, i32 0
  %62 = load ptr, ptr %61, align 8
  %63 = getelementptr inbounds nuw %struct.FmgrInfo, ptr %62, i32 0, i32 6
  %64 = load ptr, ptr %63, align 8
  store ptr %64, ptr %6, align 8
  %65 = load ptr, ptr %6, align 8
  %66 = icmp eq ptr %65, null
  br i1 %66, label %67, label %90

67:                                               ; preds = %59
  call void @llvm.lifetime.start.p0(i64 4, ptr %8) #7
  call void @llvm.lifetime.start.p0(i64 1, ptr %9) #7
  %68 = load ptr, ptr %2, align 8
  %69 = getelementptr inbounds nuw %struct.FunctionCallInfoBaseData, ptr %68, i32 0, i32 0
  %70 = load ptr, ptr %69, align 8
  %71 = getelementptr inbounds nuw %struct.FmgrInfo, ptr %70, i32 0, i32 7
  %72 = load ptr, ptr %71, align 8
  %73 = call ptr @MemoryContextAlloc(ptr noundef %72, i64 noundef 48)
  store ptr %73, ptr %6, align 8
  %74 = load ptr, ptr %3, align 8
  %75 = getelementptr inbounds nuw %struct.ArrayBuildState, ptr %74, i32 0, i32 5
  %76 = load i32, ptr %75, align 8
  call void @getTypeBinaryOutputInfo(i32 noundef %76, ptr noundef %8, ptr noundef %9)
  %77 = load i32, ptr %8, align 4
  %78 = load ptr, ptr %6, align 8
  %79 = getelementptr inbounds nuw %struct.SerialIOData, ptr %78, i32 0, i32 0
  %80 = load ptr, ptr %2, align 8
  %81 = getelementptr inbounds nuw %struct.FunctionCallInfoBaseData, ptr %80, i32 0, i32 0
  %82 = load ptr, ptr %81, align 8
  %83 = getelementptr inbounds nuw %struct.FmgrInfo, ptr %82, i32 0, i32 7
  %84 = load ptr, ptr %83, align 8
  call void @fmgr_info_cxt(i32 noundef %77, ptr noundef %79, ptr noundef %84)
  %85 = load ptr, ptr %6, align 8
  %86 = load ptr, ptr %2, align 8
  %87 = getelementptr inbounds nuw %struct.FunctionCallInfoBaseData, ptr %86, i32 0, i32 0
  %88 = load ptr, ptr %87, align 8
  %89 = getelementptr inbounds nuw %struct.FmgrInfo, ptr %88, i32 0, i32 6
  store ptr %85, ptr %89, align 8
  call void @llvm.lifetime.end.p0(i64 1, ptr %9) #7
  call void @llvm.lifetime.end.p0(i64 4, ptr %8) #7
  br label %90

90:                                               ; preds = %67, %59
  store i32 0, ptr %7, align 4
  br label %91

91:                                               ; preds = %136, %90
  %92 = load i32, ptr %7, align 4
  %93 = load ptr, ptr %3, align 8
  %94 = getelementptr inbounds nuw %struct.ArrayBuildState, ptr %93, i32 0, i32 4
  %95 = load i32, ptr %94, align 4
  %96 = icmp slt i32 %92, %95
  br i1 %96, label %97, label %139

97:                                               ; preds = %91
  call void @llvm.lifetime.start.p0(i64 8, ptr %10) #7
  %98 = load ptr, ptr %3, align 8
  %99 = getelementptr inbounds nuw %struct.ArrayBuildState, ptr %98, i32 0, i32 2
  %100 = load ptr, ptr %99, align 8
  %101 = load i32, ptr %7, align 4
  %102 = sext i32 %101 to i64
  %103 = getelementptr inbounds i8, ptr %100, i64 %102
  %104 = load i8, ptr %103, align 1, !range !4, !noundef !5
  %105 = trunc i8 %104 to i1
  br i1 %105, label %106, label %107

106:                                              ; preds = %97
  store i32 4, ptr %11, align 4
  br label %133

107:                                              ; preds = %97
  %108 = load ptr, ptr %6, align 8
  %109 = getelementptr inbounds nuw %struct.SerialIOData, ptr %108, i32 0, i32 0
  %110 = load ptr, ptr %3, align 8
  %111 = getelementptr inbounds nuw %struct.ArrayBuildState, ptr %110, i32 0, i32 1
  %112 = load ptr, ptr %111, align 8
  %113 = load i32, ptr %7, align 4
  %114 = sext i32 %113 to i64
  %115 = getelementptr inbounds i64, ptr %112, i64 %114
  %116 = load i64, ptr %115, align 8
  %117 = call ptr @SendFunctionCall(ptr noundef %109, i64 noundef %116)
  store ptr %117, ptr %10, align 8
  %118 = load ptr, ptr %10, align 8
  %119 = getelementptr inbounds nuw %struct.anon, ptr %118, i32 0, i32 0
  %120 = load i32, ptr %119, align 4
  %121 = lshr i32 %120, 2
  %122 = and i32 %121, 1073741823
  %123 = sub i32 %122, 4
  call void @pq_sendint32(ptr noundef %4, i32 noundef %123)
  %124 = load ptr, ptr %10, align 8
  %125 = getelementptr inbounds nuw %struct.anon, ptr %124, i32 0, i32 1
  %126 = getelementptr inbounds [0 x i8], ptr %125, i64 0, i64 0
  %127 = load ptr, ptr %10, align 8
  %128 = getelementptr inbounds nuw %struct.anon, ptr %127, i32 0, i32 0
  %129 = load i32, ptr %128, align 4
  %130 = lshr i32 %129, 2
  %131 = and i32 %130, 1073741823
  %132 = sub i32 %131, 4
  call void @pq_sendbytes(ptr noundef %4, ptr noundef %126, i32 noundef %132)
  store i32 0, ptr %11, align 4
  br label %133

133:                                              ; preds = %107, %106
  call void @llvm.lifetime.end.p0(i64 8, ptr %10) #7
  %134 = load i32, ptr %11, align 4
  switch i32 %134, label %144 [
    i32 0, label %135
    i32 4, label %136
  ]

135:                                              ; preds = %133
  br label %136

136:                                              ; preds = %135, %133
  %137 = load i32, ptr %7, align 4
  %138 = add i32 %137, 1
  store i32 %138, ptr %7, align 4
  br label %91, !llvm.loop !12

139:                                              ; preds = %91
  call void @llvm.lifetime.end.p0(i64 4, ptr %7) #7
  call void @llvm.lifetime.end.p0(i64 8, ptr %6) #7
  br label %140

140:                                              ; preds = %139, %49
  %141 = call ptr @pq_endtypsend(ptr noundef %4)
  store ptr %141, ptr %5, align 8
  %142 = load ptr, ptr %5, align 8
  %143 = call i64 @PointerGetDatum(ptr noundef %142)
  store i32 1, ptr %11, align 4
  call void @llvm.lifetime.end.p0(i64 8, ptr %5) #7
  call void @llvm.lifetime.end.p0(i64 24, ptr %4) #7
  call void @llvm.lifetime.end.p0(i64 8, ptr %3) #7
  ret i64 %143

144:                                              ; preds = %133
  unreachable
}