; Function Attrs: nounwind uwtable
define dso_local i64 @array_agg_serialize(ptr noundef readonly captures(none) %0) local_unnamed_addr #0 {
  %2 = alloca %struct.StringInfoData, align 8
  %3 = alloca i32, align 4
  %4 = alloca i8, align 1
  call void @llvm.lifetime.start.p0(i64 24, ptr nonnull %2) #10
  %5 = getelementptr inbounds nuw i8, ptr %0, i64 32
  %6 = load i64, ptr %5, align 8
  %7 = inttoptr i64 %6 to ptr
  call void @pq_begintypsend(ptr noundef nonnull %2) #10
  %8 = getelementptr inbounds nuw i8, ptr %7, i64 32
  %9 = load i32, ptr %8, align 8
  call void @enlargeStringInfo(ptr noundef nonnull %2, i32 noundef 4) #10
  call void @llvm.experimental.noalias.scope.decl(metadata !12)
  %10 = call i32 @llvm.bswap.i32(i32 %9)
  %11 = load ptr, ptr %2, align 8, !alias.scope !12
  %12 = getelementptr inbounds nuw i8, ptr %2, i64 8
  %13 = load i32, ptr %12, align 8, !alias.scope !12
  %14 = sext i32 %13 to i64
  %15 = getelementptr inbounds i8, ptr %11, i64 %14
  store i32 %10, ptr %15, align 1, !noalias !12
  %16 = add i32 %13, 4
  store i32 %16, ptr %12, align 8, !alias.scope !12
  %17 = getelementptr inbounds nuw i8, ptr %7, i64 28
  %18 = load i32, ptr %17, align 4
  %19 = sext i32 %18 to i64
  call void @enlargeStringInfo(ptr noundef nonnull %2, i32 noundef 8) #10
  call void @llvm.experimental.noalias.scope.decl(metadata !15)
  %20 = call i64 @llvm.bswap.i64(i64 range(i64 -2147483648, 2147483648) %19)
  %21 = load ptr, ptr %2, align 8, !alias.scope !15
  %22 = load i32, ptr %12, align 8, !alias.scope !15
  %23 = sext i32 %22 to i64
  %24 = getelementptr inbounds i8, ptr %21, i64 %23
  store i64 %20, ptr %24, align 1, !noalias !15
  %25 = add i32 %22, 8
  store i32 %25, ptr %12, align 8, !alias.scope !15
  %26 = getelementptr inbounds nuw i8, ptr %7, i64 36
  %27 = load i16, ptr %26, align 4
  call void @enlargeStringInfo(ptr noundef nonnull %2, i32 noundef 2) #10
  call void @llvm.experimental.noalias.scope.decl(metadata !18)
  %28 = call i16 @llvm.bswap.i16(i16 %27)
  %29 = load ptr, ptr %2, align 8, !alias.scope !18
  %30 = load i32, ptr %12, align 8, !alias.scope !18
  %31 = sext i32 %30 to i64
  %32 = getelementptr inbounds i8, ptr %29, i64 %31
  store i16 %28, ptr %32, align 1, !noalias !18
  %33 = add i32 %30, 2
  store i32 %33, ptr %12, align 8, !alias.scope !18
  %34 = getelementptr inbounds nuw i8, ptr %7, i64 38
  %35 = load i8, ptr %34, align 2, !range !4, !noundef !5
  call void @enlargeStringInfo(ptr noundef nonnull %2, i32 noundef 1) #10
  call void @llvm.experimental.noalias.scope.decl(metadata !21)
  %36 = load ptr, ptr %2, align 8, !alias.scope !21
  %37 = load i32, ptr %12, align 8, !alias.scope !21
  %38 = sext i32 %37 to i64
  %39 = getelementptr inbounds i8, ptr %36, i64 %38
  store i8 %35, ptr %39, align 1, !noalias !21
  %40 = add i32 %37, 1
  store i32 %40, ptr %12, align 8, !alias.scope !21
  %41 = getelementptr inbounds nuw i8, ptr %7, i64 39
  %42 = load i8, ptr %41, align 1
  call void @enlargeStringInfo(ptr noundef nonnull %2, i32 noundef 1) #10
  call void @llvm.experimental.noalias.scope.decl(metadata !24)
  %43 = load ptr, ptr %2, align 8, !alias.scope !24
  %44 = load i32, ptr %12, align 8, !alias.scope !24
  %45 = sext i32 %44 to i64
  %46 = getelementptr inbounds i8, ptr %43, i64 %45
  store i8 %42, ptr %46, align 1, !noalias !24
  %47 = add i32 %44, 1
  store i32 %47, ptr %12, align 8, !alias.scope !24
  %48 = getelementptr inbounds nuw i8, ptr %7, i64 16
  %49 = load ptr, ptr %48, align 8
  %50 = load i32, ptr %17, align 4
  call void @pq_sendbytes(ptr noundef nonnull %2, ptr noundef %49, i32 noundef %50) #10
  %51 = load i8, ptr %34, align 2, !range !4, !noundef !5
  %52 = trunc nuw i8 %51 to i1
  br i1 %52, label %53, label %58

53:                                               ; preds = %1
  %54 = getelementptr inbounds nuw i8, ptr %7, i64 8
  %55 = load ptr, ptr %54, align 8
  %56 = load i32, ptr %17, align 4
  %57 = shl i32 %56, 3
  call void @pq_sendbytes(ptr noundef nonnull %2, ptr noundef %55, i32 noundef %57) #10
  br label %.loopexit

58:                                               ; preds = %1
  %59 = load ptr, ptr %0, align 8
  %60 = getelementptr inbounds nuw i8, ptr %59, i64 24
  %61 = load ptr, ptr %60, align 8
  %62 = icmp eq ptr %61, null
  br i1 %62, label %63, label %74

63:                                               ; preds = %58
  call void @llvm.lifetime.start.p0(i64 4, ptr nonnull %3) #10
  call void @llvm.lifetime.start.p0(i64 1, ptr nonnull %4) #10
  %64 = getelementptr inbounds nuw i8, ptr %59, i64 32
  %65 = load ptr, ptr %64, align 8
  %66 = call ptr @MemoryContextAlloc(ptr noundef %65, i64 noundef 48) #10
  %67 = load i32, ptr %8, align 8
  call void @getTypeBinaryOutputInfo(i32 noundef %67, ptr noundef nonnull %3, ptr noundef nonnull %4) #10
  %68 = load i32, ptr %3, align 4
  %69 = load ptr, ptr %0, align 8
  %70 = getelementptr inbounds nuw i8, ptr %69, i64 32
  %71 = load ptr, ptr %70, align 8
  call void @fmgr_info_cxt(i32 noundef %68, ptr noundef %66, ptr noundef %71) #10
  %72 = load ptr, ptr %0, align 8
  %73 = getelementptr inbounds nuw i8, ptr %72, i64 24
  store ptr %66, ptr %73, align 8
  call void @llvm.lifetime.end.p0(i64 1, ptr nonnull %4) #10
  call void @llvm.lifetime.end.p0(i64 4, ptr nonnull %3) #10
  br label %74

74:                                               ; preds = %63, %58
  %.0 = phi ptr [ %66, %63 ], [ %61, %58 ]
  %75 = load i32, ptr %17, align 4
  %76 = icmp sgt i32 %75, 0
  br i1 %76, label %.lr.ph, label %.loopexit

.lr.ph:                                           ; preds = %74
  %77 = getelementptr inbounds nuw i8, ptr %7, i64 8
  br label %78

78:                                               ; preds = %.lr.ph, %102
  %79 = phi i32 [ %75, %.lr.ph ], [ %103, %102 ]
  %indvars.iv = phi i64 [ 0, %.lr.ph ], [ %indvars.iv.next, %102 ]
  %80 = load ptr, ptr %48, align 8
  %81 = getelementptr inbounds nuw i8, ptr %80, i64 %indvars.iv
  %82 = load i8, ptr %81, align 1, !range !4, !noundef !5
  %83 = trunc nuw i8 %82 to i1
  br i1 %83, label %102, label %84

84:                                               ; preds = %78
  %85 = load ptr, ptr %77, align 8
  %86 = getelementptr inbounds nuw i64, ptr %85, i64 %indvars.iv
  %87 = load i64, ptr %86, align 8
  %88 = call ptr @SendFunctionCall(ptr noundef %.0, i64 noundef %87) #10
  %89 = load i32, ptr %88, align 4
  %90 = lshr i32 %89, 2
  %91 = add nsw i32 %90, -4
  call void @enlargeStringInfo(ptr noundef nonnull %2, i32 noundef 4) #10
  call void @llvm.experimental.noalias.scope.decl(metadata !27)
  %92 = call i32 @llvm.bswap.i32(i32 %91)
  %93 = load ptr, ptr %2, align 8, !alias.scope !27
  %94 = load i32, ptr %12, align 8, !alias.scope !27
  %95 = sext i32 %94 to i64
  %96 = getelementptr inbounds i8, ptr %93, i64 %95
  store i32 %92, ptr %96, align 1, !noalias !27
  %97 = add i32 %94, 4
  store i32 %97, ptr %12, align 8, !alias.scope !27
  %98 = getelementptr inbounds nuw i8, ptr %88, i64 4
  %99 = load i32, ptr %88, align 4
  %100 = lshr i32 %99, 2
  %101 = add nsw i32 %100, -4
  call void @pq_sendbytes(ptr noundef nonnull %2, ptr noundef nonnull %98, i32 noundef %101) #10
  %.pre = load i32, ptr %17, align 4
  br label %102

102:                                              ; preds = %78, %84
  %103 = phi i32 [ %79, %78 ], [ %.pre, %84 ]
  %indvars.iv.next = add nuw nsw i64 %indvars.iv, 1
  %104 = sext i32 %103 to i64
  %105 = icmp slt i64 %indvars.iv.next, %104
  br i1 %105, label %78, label %.loopexit, !llvm.loop !30

.loopexit:                                        ; preds = %102, %74, %53
  %106 = call ptr @pq_endtypsend(ptr noundef nonnull %2) #10
  %107 = ptrtoint ptr %106 to i64
  call void @llvm.lifetime.end.p0(i64 24, ptr nonnull %2) #10
  ret i64 %107
}